target datalayout = "e-m:e-p270:32:32-p271:32:32-p272:64:64-i64:64-i128:128-f80:128-n8:16:32:64-S128"
target triple = "x86_64-pc-linux-gnu"

%struct.TestConfig = type <{ i32, i8, i8, i8, i8, %"class.std::__cxx11::basic_string", %"class.std::__cxx11::basic_string", %"class.std::__cxx11::basic_string", %"class.std::__cxx11::basic_string", %"class.std::__cxx11::basic_string", i8, [7 x i8], %"class.std::__cxx11::basic_string", %"class.std::__cxx11::basic_string", i8, [7 x i8], %"class.std::__cxx11::basic_string", i8, i8, i8, i8, i8, i8, i8, i8, %"class.std::__cxx11::basic_string", %"class.std::__cxx11::basic_string", i8, [7 x i8], %"class.std::__cxx11::basic_string", %"class.std::__cxx11::basic_string", %"class.std::__cxx11::basic_string", %"class.std::__cxx11::basic_string", %"class.std::__cxx11::basic_string", i8, i8, i8, [5 x i8], %"class.std::__cxx11::basic_string", %"class.std::__cxx11::basic_string", %"class.std::__cxx11::basic_string", i8, [7 x i8], %"class.std::__cxx11::basic_string", i8, [7 x i8], %"class.std::__cxx11::basic_string", i32, i32, i32, i8, i8, i8, i8, i8, i8, [6 x i8], %"class.std::__cxx11::basic_string", %"class.std::__cxx11::basic_string", %"class.std::__cxx11::basic_string", i8, [3 x i8], i32, %"class.std::__cxx11::basic_string", %"class.std::__cxx11::basic_string", i8, i8, i8, i8, i8, i8, i8, i8, i8, i8, [6 x i8], %"class.std::__cxx11::basic_string", i8, i8, i8, i8, i8, [3 x i8], %"class.std::__cxx11::basic_string", i32, i8, i8, i8, i8, i32, i8, i8, i8, i8, i32, i8, [3 x i8] }>
%"class.std::__cxx11::basic_string" = type { %"struct.std::__cxx11::basic_string<char>::_Alloc_hider", i64, %union.anon }
%"struct.std::__cxx11::basic_string<char>::_Alloc_hider" = type { ptr }
%union.anon = type { i64, [8 x i8] }
%"class.std::unique_ptr.2" = type { %"struct.std::__uniq_ptr_data.3" }
%"struct.std::__uniq_ptr_data.3" = type { %"class.std::__uniq_ptr_impl.4" }
%"class.std::__uniq_ptr_impl.4" = type { %"class.std::tuple.5" }
%"class.std::tuple.5" = type { %"struct.std::_Tuple_impl.6" }
%"struct.std::_Tuple_impl.6" = type { %"struct.std::_Head_base.9" }
%"struct.std::_Head_base.9" = type { ptr }
%"class.std::unique_ptr.10" = type { %"struct.std::__uniq_ptr_data.11" }
%"struct.std::__uniq_ptr_data.11" = type { %"class.std::__uniq_ptr_impl.12" }
%"class.std::__uniq_ptr_impl.12" = type { %"class.std::tuple.13" }
%"class.std::tuple.13" = type { %"struct.std::_Tuple_impl.14" }
%"struct.std::_Tuple_impl.14" = type { %"struct.std::_Head_base.17" }
%"struct.std::_Head_base.17" = type { ptr }
%"class.std::vector" = type { %"struct.std::_Vector_base" }
%"struct.std::_Vector_base" = type { %"struct.std::_Vector_base<unsigned char, std::allocator<unsigned char>>::_Vector_impl" }
%"struct.std::_Vector_base<unsigned char, std::allocator<unsigned char>>::_Vector_impl" = type { %"struct.std::_Vector_base<unsigned char, std::allocator<unsigned char>>::_Vector_impl_data" }
%"struct.std::_Vector_base<unsigned char, std::allocator<unsigned char>>::_Vector_impl_data" = type { ptr, ptr, ptr }
%struct.TestState = type <{ ptr, %struct.timeval, %struct.timeval, %"class.std::unique_ptr.10", i8, [7 x i8], %"class.std::unique_ptr.2", %"class.std::unique_ptr.2", i8, i8, [6 x i8], %"class.std::unique_ptr.10", %"class.std::vector", i32, i8, [3 x i8] }>
%struct.timeval = type { i64, i64 }
%struct.cbs_st = type { ptr, i64 }
%struct.ssl_early_callback_ctx = type { ptr, ptr, i64, ptr, i64, ptr, i64, ptr, i64, ptr, i64 }

@_ZL14g_config_index = internal global i32 0, align 4
@_ZL13g_state_index = internal global i32 0, align 4
@stderr = external global ptr, align 8
@.str.4 = private unnamed_addr constant [39 x i8] c"Could not find server_name extension.\0A\00", align 1
@.str.5 = private unnamed_addr constant [41 x i8] c"Could not decode server_name extension.\0A\00", align 1
@.str.6 = private unnamed_addr constant [23 x i8] c"Server name mismatch.\0A\00", align 1

; Function Attrs: mustprogress nounwind uwtable
define available_externally noundef ptr @_ZNKSt7__cxx1112basic_stringIcSt11char_traitsIcESaIcEE7_M_dataEv(ptr noundef nonnull align 8 dereferenceable(32) %0) #4 align 2 {
  %2 = alloca ptr, align 8
  store ptr %0, ptr %2, align 8, !tbaa !187
  %3 = load ptr, ptr %2, align 8
  %4 = getelementptr inbounds nuw %"class.std::__cxx11::basic_string", ptr %3, i32 0, i32 0
  %5 = getelementptr inbounds nuw %"struct.std::__cxx11::basic_string<char>::_Alloc_hider", ptr %4, i32 0, i32 0
  %6 = load ptr, ptr %5, align 8, !tbaa !197
  ret ptr %6
}

; Function Attrs: mustprogress nounwind uwtable
define available_externally noundef i64 @_ZNKSt7__cxx1112basic_stringIcSt11char_traitsIcESaIcEE4sizeEv(ptr noundef nonnull align 8 dereferenceable(32) %0) #4 align 2 {
  %2 = alloca ptr, align 8
  store ptr %0, ptr %2, align 8, !tbaa !187
  %3 = load ptr, ptr %2, align 8
  %4 = getelementptr inbounds nuw %"class.std::__cxx11::basic_string", ptr %3, i32 0, i32 1
  %5 = load i64, ptr %4, align 8, !tbaa !196
  ret i64 %5
}

; Function Attrs: mustprogress nounwind uwtable
define available_externally noundef ptr @_ZNKSt7__cxx1112basic_stringIcSt11char_traitsIcESaIcEE4dataEv(ptr noundef nonnull align 8 dereferenceable(32) %0) #4 align 2 {
  %2 = alloca ptr, align 8
  store ptr %0, ptr %2, align 8, !tbaa !187
  %3 = load ptr, ptr %2, align 8
  %4 = call noundef ptr @_ZNKSt7__cxx1112basic_stringIcSt11char_traitsIcESaIcEE7_M_dataEv(ptr noundef nonnull align 8 dereferenceable(32) %3)
  ret ptr %4
}

; Function Attrs: mustprogress nounwind uwtable
define available_externally noundef zeroext i1 @_ZNKSt7__cxx1112basic_stringIcSt11char_traitsIcESaIcEE5emptyEv(ptr noundef nonnull align 8 dereferenceable(32) %0) #4 align 2 {
  %2 = alloca ptr, align 8
  store ptr %0, ptr %2, align 8, !tbaa !187
  %3 = load ptr, ptr %2, align 8
  %4 = call noundef i64 @_ZNKSt7__cxx1112basic_stringIcSt11char_traitsIcESaIcEE4sizeEv(ptr noundef nonnull align 8 dereferenceable(32) %3) #18
  %5 = icmp eq i64 %4, 0
  ret i1 %5
}

; Function Attrs: mustprogress uwtable
define internal noundef ptr @_ZL12GetTestStatePK6ssl_st(ptr noundef %0) #6 {
  %2 = alloca ptr, align 8
  store ptr %0, ptr %2, align 8, !tbaa !204
  %3 = load ptr, ptr %2, align 8, !tbaa !204
  %4 = load i32, ptr @_ZL13g_state_index, align 4, !tbaa !6
  %5 = call ptr @SSL_get_ex_data(ptr noundef %3, i32 noundef %4)
  ret ptr %5
}

; Function Attrs: mustprogress uwtable
define internal noundef ptr @_ZL12GetConfigPtrPK6ssl_st(ptr noundef %0) #6 {
  %2 = alloca ptr, align 8
  store ptr %0, ptr %2, align 8, !tbaa !204
  %3 = load ptr, ptr %2, align 8, !tbaa !204
  %4 = load i32, ptr @_ZL14g_config_index, align 4, !tbaa !6
  %5 = call ptr @SSL_get_ex_data(ptr noundef %3, i32 noundef %4)
  ret ptr %5
}

; Function Attrs: mustprogress uwtable
define internal noundef i32 @_ZL25SelectCertificateCallbackPK22ssl_early_callback_ctx(ptr noundef %0) #6 {
  %2 = alloca i32, align 4
  %3 = alloca ptr, align 8
  %4 = alloca ptr, align 8
  %5 = alloca ptr, align 8
  %6 = alloca i64, align 8
  %7 = alloca %struct.cbs_st, align 8
  %8 = alloca %struct.cbs_st, align 8
  %9 = alloca %struct.cbs_st, align 8
  %10 = alloca i8, align 1
  %11 = alloca i32, align 4
  store ptr %0, ptr %3, align 8, !tbaa !208
  call void @llvm.lifetime.start.p0(i64 8, ptr %4) #18
  %12 = load ptr, ptr %3, align 8, !tbaa !208
  %13 = getelementptr inbounds nuw %struct.ssl_early_callback_ctx, ptr %12, i32 0, i32 0
  %14 = load ptr, ptr %13, align 8, !tbaa !210
  %15 = call noundef ptr @_ZL12GetConfigPtrPK6ssl_st(ptr noundef %14)
  store ptr %15, ptr %4, align 8, !tbaa !29
  %16 = load ptr, ptr %3, align 8, !tbaa !208
  %17 = getelementptr inbounds nuw %struct.ssl_early_callback_ctx, ptr %16, i32 0, i32 0
  %18 = load ptr, ptr %17, align 8, !tbaa !210
  %19 = call noundef ptr @_ZL12GetTestStatePK6ssl_st(ptr noundef %18)
  %20 = getelementptr inbounds nuw %struct.TestState, ptr %19, i32 0, i32 8
  store i8 1, ptr %20, align 8, !tbaa !212
  %21 = load ptr, ptr %4, align 8, !tbaa !29
  %22 = getelementptr inbounds nuw %struct.TestConfig, ptr %21, i32 0, i32 8
  %23 = call noundef zeroext i1 @_ZNKSt7__cxx1112basic_stringIcSt11char_traitsIcESaIcEE5emptyEv(ptr noundef nonnull align 8 dereferenceable(32) %22) #18
  br i1 %23, label %71, label %24

24:                                               ; preds = %1
  call void @llvm.lifetime.start.p0(i64 8, ptr %5) #18
  call void @llvm.lifetime.start.p0(i64 8, ptr %6) #18
  call void @llvm.lifetime.start.p0(i64 16, ptr %7) #18
  call void @llvm.lifetime.start.p0(i64 16, ptr %8) #18
  call void @llvm.lifetime.start.p0(i64 16, ptr %9) #18
  call void @llvm.lifetime.start.p0(i64 1, ptr %10) #18
  %25 = load ptr, ptr %3, align 8, !tbaa !208
  %26 = call i32 @SSL_early_callback_ctx_extension_get(ptr noundef %25, i16 noundef zeroext 0, ptr noundef %5, ptr noundef %6)
  %27 = icmp ne i32 %26, 0
  br i1 %27, label %31, label %28

28:                                               ; preds = %24
  %29 = load ptr, ptr @stderr, align 8, !tbaa !15
  %30 = call i32 (ptr, ptr, ...) @fprintf(ptr noundef %29, ptr noundef @.str.4) #18
  store i32 -1, ptr %2, align 4
  store i32 1, ptr %11, align 4
  br label %68

31:                                               ; preds = %24
  %32 = load ptr, ptr %5, align 8, !tbaa !13
  %33 = load i64, ptr %6, align 8, !tbaa !28
  call void @CBS_init(ptr noundef %7, ptr noundef %32, i64 noundef %33)
  %34 = call i32 @CBS_get_u16_length_prefixed(ptr noundef %7, ptr noundef %8)
  %35 = icmp ne i32 %34, 0
  br i1 %35, label %36, label %52

36:                                               ; preds = %31
  %37 = call i64 @CBS_len(ptr noundef %7)
  %38 = icmp ne i64 %37, 0
  br i1 %38, label %52, label %39

39:                                               ; preds = %36
  %40 = call i32 @CBS_get_u8(ptr noundef %8, ptr noundef %10)
  %41 = icmp ne i32 %40, 0
  br i1 %41, label %42, label %52

42:                                               ; preds = %39
  %43 = load i8, ptr %10, align 1, !tbaa !146
  %44 = zext i8 %43 to i32
  %45 = icmp ne i32 %44, 0
  br i1 %45, label %52, label %46

46:                                               ; preds = %42
  %47 = call i32 @CBS_get_u16_length_prefixed(ptr noundef %8, ptr noundef %9)
  %48 = icmp ne i32 %47, 0
  br i1 %48, label %49, label %52

49:                                               ; preds = %46
  %50 = call i64 @CBS_len(ptr noundef %8)
  %51 = icmp ne i64 %50, 0
  br i1 %51, label %52, label %55

52:                                               ; preds = %49, %46, %42, %39, %36, %31
  %53 = load ptr, ptr @stderr, align 8, !tbaa !15
  %54 = call i32 (ptr, ptr, ...) @fprintf(ptr noundef %53, ptr noundef @.str.5) #18
  store i32 -1, ptr %2, align 4
  store i32 1, ptr %11, align 4
  br label %68

55:                                               ; preds = %49
  %56 = load ptr, ptr %4, align 8, !tbaa !29
  %57 = getelementptr inbounds nuw %struct.TestConfig, ptr %56, i32 0, i32 8
  %58 = call noundef ptr @_ZNKSt7__cxx1112basic_stringIcSt11char_traitsIcESaIcEE4dataEv(ptr noundef nonnull align 8 dereferenceable(32) %57) #18
  %59 = load ptr, ptr %4, align 8, !tbaa !29
  %60 = getelementptr inbounds nuw %struct.TestConfig, ptr %59, i32 0, i32 8
  %61 = call noundef i64 @_ZNKSt7__cxx1112basic_stringIcSt11char_traitsIcESaIcEE4sizeEv(ptr noundef nonnull align 8 dereferenceable(32) %60) #18
  %62 = call i32 @CBS_mem_equal(ptr noundef %9, ptr noundef %58, i64 noundef %61)
  %63 = icmp ne i32 %62, 0
  br i1 %63, label %67, label %64

64:                                               ; preds = %55
  %65 = load ptr, ptr @stderr, align 8, !tbaa !15
  %66 = call i32 (ptr, ptr, ...) @fprintf(ptr noundef %65, ptr noundef @.str.6) #18
  br label %67

67:                                               ; preds = %64, %55
  store i32 0, ptr %11, align 4
  br label %68

68:                                               ; preds = %67, %52, %28
  call void @llvm.lifetime.end.p0(i64 1, ptr %10) #18
  call void @llvm.lifetime.end.p0(i64 16, ptr %9) #18
  call void @llvm.lifetime.end.p0(i64 16, ptr %8) #18
  call void @llvm.lifetime.end.p0(i64 16, ptr %7) #18
  call void @llvm.lifetime.end.p0(i64 8, ptr %6) #18
  call void @llvm.lifetime.end.p0(i64 8, ptr %5) #18
  %69 = load i32, ptr %11, align 4
  switch i32 %69, label %96 [
    i32 0, label %70
  ]

70:                                               ; preds = %68
  br label %71

71:                                               ; preds = %70, %1
  %72 = load ptr, ptr %4, align 8, !tbaa !29
  %73 = getelementptr inbounds nuw %struct.TestConfig, ptr %72, i32 0, i32 52
  %74 = load i8, ptr %73, align 2, !tbaa !56, !range !23, !noundef !24
  %75 = trunc i8 %74 to i1
  br i1 %75, label %76, label %77

76:                                               ; preds = %71
  store i32 -1, ptr %2, align 4
  store i32 1, ptr %11, align 4
  br label %96

77:                                               ; preds = %71
  %78 = load ptr, ptr %4, align 8, !tbaa !29
  %79 = getelementptr inbounds nuw %struct.TestConfig, ptr %78, i32 0, i32 51
  %80 = load i8, ptr %79, align 1, !tbaa !55, !range !23, !noundef !24
  %81 = trunc i8 %80 to i1
  br i1 %81, label %82, label %95

82:                                               ; preds = %77
  %83 = load ptr, ptr %4, align 8, !tbaa !29
  %84 = getelementptr inbounds nuw %struct.TestConfig, ptr %83, i32 0, i32 17
  %85 = load i8, ptr %84, align 8, !tbaa !37, !range !23, !noundef !24
  %86 = trunc i8 %85 to i1
  br i1 %86, label %87, label %88

87:                                               ; preds = %82
  store i32 0, ptr %2, align 4
  store i32 1, ptr %11, align 4
  br label %96

88:                                               ; preds = %82
  %89 = load ptr, ptr %3, align 8, !tbaa !208
  %90 = getelementptr inbounds nuw %struct.ssl_early_callback_ctx, ptr %89, i32 0, i32 0
  %91 = load ptr, ptr %90, align 8, !tbaa !210
  %92 = call noundef zeroext i1 @_ZL18InstallCertificateP6ssl_st(ptr noundef %91)
  br i1 %92, label %94, label %93

93:                                               ; preds = %88
  store i32 -1, ptr %2, align 4
  store i32 1, ptr %11, align 4
  br label %96

94:                                               ; preds = %88
  br label %95

95:                                               ; preds = %94, %77
  store i32 1, ptr %2, align 4
  store i32 1, ptr %11, align 4
  br label %96

96:                                               ; preds = %95, %93, %87, %76, %68
  call void @llvm.lifetime.end.p0(i64 8, ptr %4) #18
  %97 = load i32, ptr %2, align 4
  ret i32 %97
}