; Function Attrs: mustprogress uwtable
define internal noundef range(i32 -1, 2) i32 @_ZL25SelectCertificateCallbackPK22ssl_early_callback_ctx(ptr noundef %0) #10 {
  %2 = alloca ptr, align 8
  %3 = alloca i64, align 8
  %4 = alloca %struct.cbs_st, align 8
  %5 = alloca %struct.cbs_st, align 8
  %6 = alloca %struct.cbs_st, align 8
  %7 = alloca i8, align 1
  %8 = load ptr, ptr %0, align 8, !tbaa !151
  %9 = load i32, ptr @_ZL14g_config_index, align 4, !tbaa !6
  %10 = tail call noundef ptr @SSL_get_ex_data(ptr noundef %8, i32 noundef %9)
  %11 = load ptr, ptr %0, align 8, !tbaa !151
  %12 = load i32, ptr @_ZL13g_state_index, align 4, !tbaa !6
  %13 = tail call noundef ptr @SSL_get_ex_data(ptr noundef %11, i32 noundef %12)
  %14 = getelementptr inbounds nuw i8, ptr %13, i64 72
  store i8 1, ptr %14, align 8, !tbaa !153
  %15 = getelementptr inbounds nuw i8, ptr %10, i64 104
  %16 = getelementptr inbounds nuw i8, ptr %10, i64 112
  %17 = load i64, ptr %16, align 8, !tbaa !14
  %18 = icmp eq i64 %17, 0
  br i1 %18, label %50, label %19

19:                                               ; preds = %1
  call void @llvm.lifetime.start.p0(i64 8, ptr nonnull %2) #28
  call void @llvm.lifetime.start.p0(i64 8, ptr nonnull %3) #28
  call void @llvm.lifetime.start.p0(i64 16, ptr nonnull %4) #28
  call void @llvm.lifetime.start.p0(i64 16, ptr nonnull %5) #28
  call void @llvm.lifetime.start.p0(i64 16, ptr nonnull %6) #28
  call void @llvm.lifetime.start.p0(i64 1, ptr nonnull %7) #28
  %20 = call i32 @SSL_early_callback_ctx_extension_get(ptr noundef nonnull %0, i16 noundef zeroext 0, ptr noundef nonnull %2, ptr noundef nonnull %3)
  %.not = icmp eq i32 %20, 0
  br i1 %.not, label %21, label %24

21:                                               ; preds = %19
  %22 = load ptr, ptr @stderr, align 8, !tbaa !33
  %23 = call i64 @fwrite(ptr nonnull @.str.4, i64 38, i64 1, ptr %22) #32
  br label %.critedge

24:                                               ; preds = %19
  %25 = load ptr, ptr %2, align 8, !tbaa !32
  %26 = load i64, ptr %3, align 8, !tbaa !144
  call void @CBS_init(ptr noundef nonnull %4, ptr noundef %25, i64 noundef %26)
  %27 = call i32 @CBS_get_u16_length_prefixed(ptr noundef nonnull %4, ptr noundef nonnull %5)
  %.not14 = icmp eq i32 %27, 0
  br i1 %.not14, label %39, label %28

28:                                               ; preds = %24
  %29 = call i64 @CBS_len(ptr noundef nonnull %4)
  %.not15 = icmp eq i64 %29, 0
  br i1 %.not15, label %30, label %39

30:                                               ; preds = %28
  %31 = call i32 @CBS_get_u8(ptr noundef nonnull %5, ptr noundef nonnull %7)
  %32 = icmp eq i32 %31, 0
  %33 = load i8, ptr %7, align 1
  %34 = icmp ne i8 %33, 0
  %or.cond = select i1 %32, i1 true, i1 %34
  br i1 %or.cond, label %39, label %35

35:                                               ; preds = %30
  %36 = call i32 @CBS_get_u16_length_prefixed(ptr noundef nonnull %5, ptr noundef nonnull %6)
  %.not16 = icmp eq i32 %36, 0
  br i1 %.not16, label %39, label %37

37:                                               ; preds = %35
  %38 = call i64 @CBS_len(ptr noundef nonnull %5)
  %.not17 = icmp eq i64 %38, 0
  br i1 %.not17, label %42, label %39

39:                                               ; preds = %37, %35, %30, %28, %24
  %40 = load ptr, ptr @stderr, align 8, !tbaa !33
  %41 = call i64 @fwrite(ptr nonnull @.str.5, i64 40, i64 1, ptr %40) #32
  br label %.critedge

42:                                               ; preds = %37
  %43 = load ptr, ptr %15, align 8, !tbaa !45
  %44 = load i64, ptr %16, align 8, !tbaa !14
  %45 = call i32 @CBS_mem_equal(ptr noundef nonnull %6, ptr noundef %43, i64 noundef %44)
  %.not18 = icmp eq i32 %45, 0
  br i1 %.not18, label %46, label %49

46:                                               ; preds = %42
  %47 = load ptr, ptr @stderr, align 8, !tbaa !33
  %48 = call i64 @fwrite(ptr nonnull @.str.6, i64 22, i64 1, ptr %47) #32
  br label %49

49:                                               ; preds = %42, %46
  call void @llvm.lifetime.end.p0(i64 1, ptr nonnull %7) #28
  call void @llvm.lifetime.end.p0(i64 16, ptr nonnull %6) #28
  call void @llvm.lifetime.end.p0(i64 16, ptr nonnull %5) #28
  call void @llvm.lifetime.end.p0(i64 16, ptr nonnull %4) #28
  call void @llvm.lifetime.end.p0(i64 8, ptr nonnull %3) #28
  call void @llvm.lifetime.end.p0(i64 8, ptr nonnull %2) #28
  br label %50

50:                                               ; preds = %49, %1
  %51 = getelementptr inbounds nuw i8, ptr %10, i64 718
  %52 = load i8, ptr %51, align 2, !tbaa !154, !range !39, !noundef !40
  %53 = trunc nuw i8 %52 to i1
  br i1 %53, label %66, label %54

54:                                               ; preds = %50
  %55 = getelementptr inbounds nuw i8, ptr %10, i64 717
  %56 = load i8, ptr %55, align 1, !tbaa !89, !range !39, !noundef !40
  %57 = trunc nuw i8 %56 to i1
  br i1 %57, label %58, label %65

58:                                               ; preds = %54
  %59 = getelementptr inbounds nuw i8, ptr %10, i64 280
  %60 = load i8, ptr %59, align 8, !tbaa !57, !range !39, !noundef !40
  %61 = trunc nuw i8 %60 to i1
  br i1 %61, label %66, label %62

62:                                               ; preds = %58
  %63 = load ptr, ptr %0, align 8, !tbaa !151
  %64 = call fastcc noundef zeroext i1 @_ZL18InstallCertificateP6ssl_st(ptr noundef %63)
  br i1 %64, label %65, label %66

65:                                               ; preds = %62, %54
  br label %66

.critedge:                                        ; preds = %21, %39
  call void @llvm.lifetime.end.p0(i64 1, ptr nonnull %7) #28
  call void @llvm.lifetime.end.p0(i64 16, ptr nonnull %6) #28
  call void @llvm.lifetime.end.p0(i64 16, ptr nonnull %5) #28
  call void @llvm.lifetime.end.p0(i64 16, ptr nonnull %4) #28
  call void @llvm.lifetime.end.p0(i64 8, ptr nonnull %3) #28
  call void @llvm.lifetime.end.p0(i64 8, ptr nonnull %2) #28
  br label %66

66:                                               ; preds = %62, %58, %50, %.critedge, %65
  %.1 = phi i32 [ 1, %65 ], [ -1, %.critedge ], [ -1, %50 ], [ 0, %58 ], [ -1, %62 ]
  ret i32 %.1
}